target datalayout = "e-m:e-p270:32:32-p271:32:32-p272:64:64-i64:64-i128:128-f80:128-n8:16:32:64-S128"
target triple = "x86_64-pc-linux-gnu"

@g_assert_poison = external global ptr, align 8
@.str.67 = private unnamed_addr constant [34 x i8] c"src/hotspot/os/posix/os_posix.cpp\00", align 1
@.str.68 = private unnamed_addr constant [48 x i8] c"guarantee(outbuf[outbuflen - 1] == '\\0') failed\00", align 1
@.str.69 = private unnamed_addr constant [36 x i8] c"realpath buffer overwrite detected.\00", align 1

; Function Attrs: mustprogress nounwind uwtable
define hidden noundef ptr @_ZN2os5Posix8realpathEPKcPcm(ptr noundef %0, ptr noundef %1, i64 noundef %2) #1 align 2 {
  %4 = alloca ptr, align 8
  %5 = alloca ptr, align 8
  %6 = alloca ptr, align 8
  %7 = alloca i64, align 8
  %8 = alloca ptr, align 8
  %9 = alloca ptr, align 8
  store ptr %0, ptr %5, align 8
  store ptr %1, ptr %6, align 8
  store i64 %2, ptr %7, align 8
  %10 = load ptr, ptr %5, align 8
  %11 = icmp eq ptr %10, null
  br i1 %11, label %18, label %12

12:                                               ; preds = %3
  %13 = load ptr, ptr %6, align 8
  %14 = icmp eq ptr %13, null
  br i1 %14, label %18, label %15

15:                                               ; preds = %12
  %16 = load i64, ptr %7, align 8
  %17 = icmp ult i64 %16, 1
  br i1 %17, label %18, label %20

18:                                               ; preds = %15, %12, %3
  %19 = call ptr @__errno_location() #14
  store i32 22, ptr %19, align 4
  store ptr null, ptr %4, align 8
  br label %71

20:                                               ; preds = %15
  store ptr null, ptr %8, align 8
  %21 = load ptr, ptr %5, align 8
  %22 = call ptr @realpath(ptr noundef %21, ptr noundef null) #7
  store ptr %22, ptr %9, align 8
  %23 = load ptr, ptr %9, align 8
  %24 = icmp ne ptr %23, null
  br i1 %24, label %25, label %39

25:                                               ; preds = %20
  %26 = load ptr, ptr %9, align 8
  %27 = call i64 @strlen(ptr noundef %26) #15
  %28 = load i64, ptr %7, align 8
  %29 = icmp ult i64 %27, %28
  br i1 %29, label %30, label %35

30:                                               ; preds = %25
  %31 = load ptr, ptr %6, align 8
  %32 = load ptr, ptr %9, align 8
  %33 = call ptr @strcpy(ptr noundef %31, ptr noundef %32) #7
  %34 = load ptr, ptr %6, align 8
  store ptr %34, ptr %8, align 8
  br label %37

35:                                               ; preds = %25
  %36 = call ptr @__errno_location() #14
  store i32 36, ptr %36, align 4
  br label %37

37:                                               ; preds = %35, %30
  %38 = load ptr, ptr %9, align 8
  call void @free(ptr noundef %38) #7
  br label %69

39:                                               ; preds = %20
  %40 = call ptr @__errno_location() #14
  %41 = load i32, ptr %40, align 4
  %42 = icmp eq i32 %41, 22
  br i1 %42, label %43, label %68

43:                                               ; preds = %39
  %44 = load ptr, ptr %6, align 8
  %45 = load i64, ptr %7, align 8
  %46 = sub i64 %45, 1
  %47 = getelementptr inbounds i8, ptr %44, i64 %46
  store i8 0, ptr %47, align 1
  %48 = load ptr, ptr %5, align 8
  %49 = load ptr, ptr %6, align 8
  %50 = call ptr @realpath(ptr noundef %48, ptr noundef %49) #7
  store ptr %50, ptr %9, align 8
  %51 = load ptr, ptr %9, align 8
  %52 = icmp ne ptr %51, null
  br i1 %52, label %53, label %67

53:                                               ; preds = %43
  br label %54

54:                                               ; preds = %53
  %55 = load ptr, ptr %6, align 8
  %56 = load i64, ptr %7, align 8
  %57 = sub i64 %56, 1
  %58 = getelementptr inbounds i8, ptr %55, i64 %57
  %59 = load i8, ptr %58, align 1
  %60 = sext i8 %59 to i32
  %61 = icmp eq i32 %60, 0
  br i1 %61, label %64, label %62

62:                                               ; preds = %54
  %63 = load ptr, ptr @g_assert_poison, align 8
  store i8 88, ptr %63, align 1
  call void (ptr, i32, ptr, ptr, ...) @_Z15report_vm_errorPKciS0_S0_z(ptr noundef @.str.67, i32 noundef 1059, ptr noundef @.str.68, ptr noundef @.str.69) #17
  unreachable

64:                                               ; preds = %54
  br label %65

65:                                               ; preds = %64
  %66 = load ptr, ptr %9, align 8
  store ptr %66, ptr %8, align 8
  br label %67

67:                                               ; preds = %65, %43
  br label %68

68:                                               ; preds = %67, %39
  br label %69

69:                                               ; preds = %68, %37
  %70 = load ptr, ptr %8, align 8
  store ptr %70, ptr %4, align 8
  br label %71

71:                                               ; preds = %69, %18
  %72 = load ptr, ptr %4, align 8
  ret ptr %72
}