; Function Attrs: mustprogress nounwind uwtable
define hidden noundef ptr @_ZN2os5Posix8realpathEPKcPcm(ptr noundef readonly %0, ptr noundef %1, i64 noundef %2) local_unnamed_addr #1 align 2 {
  %4 = icmp eq ptr %0, null
  %5 = icmp eq ptr %1, null
  %or.cond = or i1 %4, %5
  %6 = icmp eq i64 %2, 0
  %or.cond3 = or i1 %or.cond, %6
  br i1 %or.cond3, label %7, label %9

7:                                                ; preds = %3
  %8 = tail call ptr @__errno_location() #26
  store i32 22, ptr %8, align 4
  br label %32

9:                                                ; preds = %3
  %10 = tail call ptr @realpath(ptr noundef nonnull %0, ptr noundef null) #25
  %.not = icmp eq ptr %10, null
  br i1 %.not, label %19, label %11

11:                                               ; preds = %9
  %12 = tail call i64 @strlen(ptr noundef nonnull dereferenceable(1) %10) #27
  %13 = icmp ult i64 %12, %2
  br i1 %13, label %14, label %16

14:                                               ; preds = %11
  %15 = tail call ptr @strcpy(ptr noundef nonnull dereferenceable(1) %1, ptr noundef nonnull dereferenceable(1) %10) #25
  br label %18

16:                                               ; preds = %11
  %17 = tail call ptr @__errno_location() #26
  store i32 36, ptr %17, align 4
  br label %18

18:                                               ; preds = %16, %14
  %.0 = phi ptr [ %1, %14 ], [ null, %16 ]
  tail call void @free(ptr noundef nonnull %10) #25
  br label %32

19:                                               ; preds = %9
  %20 = tail call ptr @__errno_location() #26
  %21 = load i32, ptr %20, align 4
  %22 = icmp eq i32 %21, 22
  br i1 %22, label %23, label %32

23:                                               ; preds = %19
  %24 = getelementptr i8, ptr %1, i64 %2
  %25 = getelementptr i8, ptr %24, i64 -1
  store i8 0, ptr %25, align 1
  %26 = tail call ptr @realpath(ptr noundef nonnull %0, ptr noundef nonnull %1) #25
  %.not29 = icmp eq ptr %26, null
  br i1 %.not29, label %32, label %27

27:                                               ; preds = %23
  %28 = load i8, ptr %25, align 1
  %29 = icmp eq i8 %28, 0
  br i1 %29, label %32, label %30

30:                                               ; preds = %27
  %31 = load ptr, ptr @g_assert_poison, align 8
  store i8 88, ptr %31, align 1
  tail call void (ptr, i32, ptr, ptr, ...) @_Z15report_vm_errorPKciS0_S0_z(ptr noundef nonnull @.str.67, i32 noundef 1059, ptr noundef nonnull @.str.68, ptr noundef nonnull @.str.69) #28
  unreachable

32:                                               ; preds = %18, %23, %19, %27, %7
  %.023 = phi ptr [ null, %7 ], [ %.0, %18 ], [ null, %23 ], [ null, %19 ], [ %26, %27 ]
  ret ptr %.023
}